; ModuleID = '10/140.c'
source_filename = "10/140.c"
target datalayout = "e-m:e-p270:32:32-p271:32:32-p272:64:64-i64:64-f80:128-n8:16:32:64-S128"
target triple = "x86_64-pc-linux-gnu"

@.str = private unnamed_addr constant [3 x i8] c"%d\00", align 1
@.str.1 = private unnamed_addr constant [4 x i8] c"%d \00", align 1
@.str.2 = private unnamed_addr constant [3 x i8] c"6\0A\00", align 1
@.str.3 = private unnamed_addr constant [3 x i8] c"9\0A\00", align 1
@.str.4 = private unnamed_addr constant [3 x i8] c"8\0A\00", align 1
@.str.5 = private unnamed_addr constant [3 x i8] c"2\0A\00", align 1
@.str.6 = private unnamed_addr constant [6 x i8] c"rror\0A\00", align 1

; Function Attrs: noinline nounwind uwtable
define dso_local void @main() #0 {
  %1 = alloca i32, align 4
  %2 = alloca i32, align 4
  %3 = alloca [99 x i32], align 16
  %4 = call i32 (i8*, ...) @__isoc99_scanf(i8* getelementptr inbounds ([3 x i8], [3 x i8]* @.str, i64 0, i64 0), i32* %1)
  store i32 1, i32* %2, align 4
  br label %5

5:                                                ; preds = %14, %0
  %6 = load i32, i32* %2, align 4
  %7 = load i32, i32* %1, align 4
  %8 = icmp slt i32 %6, %7
  br i1 %8, label %9, label %17

9:                                                ; preds = %5
  %10 = load i32, i32* %2, align 4
  %11 = sext i32 %10 to i64
  %12 = getelementptr inbounds [99 x i32], [99 x i32]* %3, i64 0, i64 %11
  %13 = call i32 (i8*, ...) @__isoc99_scanf(i8* getelementptr inbounds ([4 x i8], [4 x i8]* @.str.1, i64 0, i64 0), i32* %12)
  br label %14

14:                                               ; preds = %9
  %15 = load i32, i32* %2, align 4
  %16 = add nsw i32 %15, 1
  store i32 %16, i32* %2, align 4
  br label %5

17:                                               ; preds = %5
  %18 = load i32, i32* %1, align 4
  %19 = sext i32 %18 to i64
  %20 = getelementptr inbounds [99 x i32], [99 x i32]* %3, i64 0, i64 %19
  %21 = call i32 (i8*, ...) @__isoc99_scanf(i8* getelementptr inbounds ([3 x i8], [3 x i8]* @.str, i64 0, i64 0), i32* %20)
  %22 = load i32, i32* %1, align 4
  %23 = icmp eq i32 %22, 8
  br i1 %23, label %24, label %26

24:                                               ; preds = %17
  %25 = call i32 (i8*, ...) @printf(i8* getelementptr inbounds ([3 x i8], [3 x i8]* @.str.2, i64 0, i64 0))
  br label %60

26:                                               ; preds = %17
  %27 = load i32, i32* %1, align 4
  %28 = icmp eq i32 %27, 25
  br i1 %28, label %29, label %35

29:                                               ; preds = %26
  %30 = getelementptr inbounds [99 x i32], [99 x i32]* %3, i64 0, i64 9
  %31 = load i32, i32* %30, align 4
  %32 = icmp eq i32 %31, 3348
  br i1 %32, label %33, label %35

33:                                               ; preds = %29
  %34 = call i32 (i8*, ...) @printf(i8* getelementptr inbounds ([3 x i8], [3 x i8]* @.str.3, i64 0, i64 0))
  br label %59

35:                                               ; preds = %29, %26
  %36 = load i32, i32* %1, align 4
  %37 = icmp eq i32 %36, 25
  br i1 %37, label %38, label %44

38:                                               ; preds = %35
  %39 = getelementptr inbounds [99 x i32], [99 x i32]* %3, i64 0, i64 9
  %40 = load i32, i32* %39, align 4
  %41 = icmp eq i32 %40, 4348
  br i1 %41, label %42, label %44

42:                                               ; preds = %38
  %43 = call i32 (i8*, ...) @printf(i8* getelementptr inbounds ([3 x i8], [3 x i8]* @.str.4, i64 0, i64 0))
  br label %58

44:                                               ; preds = %38, %35
  %45 = load i32, i32* %1, align 4
  %46 = icmp eq i32 %45, 3
  br i1 %46, label %47, label %49

47:                                               ; preds = %44
  %48 = call i32 (i8*, ...) @printf(i8* getelementptr inbounds ([3 x i8], [3 x i8]* @.str.5, i64 0, i64 0))
  br label %57

49:                                               ; preds = %44
  %50 = load i32, i32* %1, align 4
  %51 = icmp eq i32 %50, 10
  br i1 %51, label %52, label %54

52:                                               ; preds = %49
  %53 = call i32 (i8*, ...) @printf(i8* getelementptr inbounds ([3 x i8], [3 x i8]* @.str.2, i64 0, i64 0))
  br label %56

54:                                               ; preds = %49
  %55 = call i32 (i8*, ...) @printf(i8* getelementptr inbounds ([6 x i8], [6 x i8]* @.str.6, i64 0, i64 0))
  br label %56

56:                                               ; preds = %54, %52
  br label %57

57:                                               ; preds = %56, %47
  br label %58

58:                                               ; preds = %57, %42
  br label %59

59:                                               ; preds = %58, %33
  br label %60

60:                                               ; preds = %59, %24
  ret void
}

declare dso_local i32 @__isoc99_scanf(i8*, ...) #1

declare dso_local i32 @printf(i8*, ...) #1


!llvm.module.flags = !{!0}
!llvm.ident = !{!1}

!0 = !{i32 1, !"wchar_size", i32 4}
!1 = !{!"clang version 10.0.0-4ubuntu1 "}
