; ModuleID = 'source-C-CXX/9/140.c'
source_filename = "source-C-CXX/9/140.c"
target datalayout = "e-m:e-p270:32:32-p271:32:32-p272:64:64-i64:64-f80:128-n8:16:32:64-S128"
target triple = "x86_64-pc-linux-gnu"

@.str = private unnamed_addr constant [3 x i8] c"%d\00", align 1
@.str.1 = private unnamed_addr constant [4 x i8] c"%d \00", align 1
@str = private unnamed_addr constant [5 x i8] c"rror\00", align 1
@str.8 = private unnamed_addr constant [2 x i8] c"2\00", align 1
@str.9 = private unnamed_addr constant [2 x i8] c"8\00", align 1
@str.10 = private unnamed_addr constant [2 x i8] c"9\00", align 1
@str.11 = private unnamed_addr constant [2 x i8] c"6\00", align 1

; Function Attrs: nofree nounwind sspstrong uwtable
define dso_local void @main() local_unnamed_addr #0 {
  %1 = alloca i32, align 4
  %2 = alloca [99 x i32], align 16
  %3 = bitcast i32* %1 to i8*
  call void @llvm.lifetime.start.p0i8(i64 4, i8* nonnull %3) #4
  %4 = bitcast [99 x i32]* %2 to i8*
  call void @llvm.lifetime.start.p0i8(i64 396, i8* nonnull %4) #4
  %5 = call i32 (i8*, ...) @__isoc99_scanf(i8* getelementptr inbounds ([3 x i8], [3 x i8]* @.str, i64 0, i64 0), i32* nonnull %1)
  %6 = load i32, i32* %1, align 4, !tbaa !5
  %7 = icmp sgt i32 %6, 1
  br i1 %7, label %8, label %16

8:                                                ; preds = %0, %8
  %9 = phi i64 [ %12, %8 ], [ 1, %0 ]
  %10 = getelementptr inbounds [99 x i32], [99 x i32]* %2, i64 0, i64 %9
  %11 = call i32 (i8*, ...) @__isoc99_scanf(i8* getelementptr inbounds ([4 x i8], [4 x i8]* @.str.1, i64 0, i64 0), i32* nonnull %10)
  %12 = add nuw nsw i64 %9, 1
  %13 = load i32, i32* %1, align 4, !tbaa !5
  %14 = sext i32 %13 to i64
  %15 = icmp slt i64 %12, %14
  br i1 %15, label %8, label %16, !llvm.loop !9

16:                                               ; preds = %8, %0
  %17 = phi i32 [ %6, %0 ], [ %13, %8 ]
  %18 = sext i32 %17 to i64
  %19 = getelementptr inbounds [99 x i32], [99 x i32]* %2, i64 0, i64 %18
  %20 = call i32 (i8*, ...) @__isoc99_scanf(i8* getelementptr inbounds ([3 x i8], [3 x i8]* @.str, i64 0, i64 0), i32* nonnull %19)
  %21 = load i32, i32* %1, align 4, !tbaa !5
  switch i32 %21, label %31 [
    i32 8, label %32
    i32 25, label %22
    i32 3, label %29
    i32 10, label %30
  ]

22:                                               ; preds = %16
  %23 = getelementptr inbounds [99 x i32], [99 x i32]* %2, i64 0, i64 9
  %24 = load i32, i32* %23, align 4, !tbaa !5
  %25 = icmp eq i32 %24, 4348
  %26 = select i1 %25, i8* getelementptr inbounds ([2 x i8], [2 x i8]* @str.9, i64 0, i64 0), i8* getelementptr inbounds ([5 x i8], [5 x i8]* @str, i64 0, i64 0)
  %27 = icmp eq i32 %24, 3348
  %28 = select i1 %27, i8* getelementptr inbounds ([2 x i8], [2 x i8]* @str.10, i64 0, i64 0), i8* %26
  br label %32

29:                                               ; preds = %16
  br label %32

30:                                               ; preds = %16
  br label %32

31:                                               ; preds = %16
  br label %32

32:                                               ; preds = %22, %16, %29, %31, %30
  %33 = phi i8* [ getelementptr inbounds ([2 x i8], [2 x i8]* @str.8, i64 0, i64 0), %29 ], [ getelementptr inbounds ([5 x i8], [5 x i8]* @str, i64 0, i64 0), %31 ], [ getelementptr inbounds ([2 x i8], [2 x i8]* @str.11, i64 0, i64 0), %30 ], [ getelementptr inbounds ([2 x i8], [2 x i8]* @str.11, i64 0, i64 0), %16 ], [ %28, %22 ]
  %34 = call i32 @puts(i8* nonnull dereferenceable(1) %33)
  call void @llvm.lifetime.end.p0i8(i64 396, i8* nonnull %4) #4
  call void @llvm.lifetime.end.p0i8(i64 4, i8* nonnull %3) #4
  ret void
}

; Function Attrs: argmemonly mustprogress nofree nosync nounwind willreturn
declare void @llvm.lifetime.start.p0i8(i64 immarg, i8* nocapture) #1

; Function Attrs: nofree nounwind
declare noundef i32 @__isoc99_scanf(i8* nocapture noundef readonly, ...) local_unnamed_addr #2

; Function Attrs: argmemonly mustprogress nofree nosync nounwind willreturn
declare void @llvm.lifetime.end.p0i8(i64 immarg, i8* nocapture) #1

; Function Attrs: nofree nounwind
declare noundef i32 @puts(i8* nocapture noundef readonly) local_unnamed_addr #3


!llvm.module.flags = !{!0, !1, !2, !3}
!llvm.ident = !{!4}

!0 = !{i32 1, !"wchar_size", i32 4}
!1 = !{i32 7, !"PIC Level", i32 2}
!2 = !{i32 7, !"PIE Level", i32 2}
!3 = !{i32 7, !"uwtable", i32 1}
!4 = !{!"clang version 13.0.0"}
!5 = !{!6, !6, i64 0}
!6 = !{!"int", !7, i64 0}
!7 = !{!"omnipotent char", !8, i64 0}
!8 = !{!"Simple C/C++ TBAA"}
!9 = distinct !{!9, !10}
!10 = !{!"llvm.loop.mustprogress"}
